target datalayout = "e-m:e-p270:32:32-p271:32:32-p272:64:64-i64:64-i128:128-f80:128-n8:16:32:64-S128"
target triple = "x86_64-pc-linux-gnu"

%"struct.faiss::IndexAdditiveQuantizerFastScan" = type { %"struct.faiss::IndexFastScan", ptr, i8, i32, i64 }
%"struct.faiss::IndexFastScan" = type { %"struct.faiss::Index.base", i32, i32, i32, i32, i64, i64, i64, i64, i64, i64, %"struct.faiss::AlignedTable", ptr }
%"struct.faiss::Index.base" = type <{ ptr, i32, [4 x i8], i64, i8, i8, [2 x i8], i32, float }>
%"struct.faiss::AlignedTable" = type { %"struct.faiss::AlignedTableTightAlloc", i64 }
%"struct.faiss::AlignedTableTightAlloc" = type { ptr, i64 }

; Function Attrs: mustprogress uwtable
define void @_ZN5faiss30IndexAdditiveQuantizerFastScanC2EPNS_17AdditiveQuantizerENS_10MetricTypeEi(ptr noundef nonnull align 8 dereferenceable(160) %0, ptr noundef %1, i32 noundef %2, i32 noundef %3) unnamed_addr #1 align 2 personality ptr @__gxx_personality_v0 {
  %5 = alloca ptr, align 8
  %6 = alloca ptr, align 8
  %7 = alloca i32, align 4
  %8 = alloca i32, align 4
  %9 = alloca ptr, align 8
  %10 = alloca i32, align 4
  store ptr %0, ptr %5, align 8, !tbaa !4
  store ptr %1, ptr %6, align 8, !tbaa !76
  store i32 %2, ptr %7, align 4, !tbaa !77
  store i32 %3, ptr %8, align 4, !tbaa !21
  %11 = load ptr, ptr %5, align 8
  call void @_ZN5faiss13IndexFastScanC2Ev(ptr noundef nonnull align 8 dereferenceable(136) %11)
  store ptr getelementptr inbounds inrange(-16, 200) ({ [27 x ptr] }, ptr @_ZTVN5faiss30IndexAdditiveQuantizerFastScanE, i32 0, i32 0, i32 2), ptr %11, align 8, !tbaa !57
  %12 = getelementptr inbounds nuw %"struct.faiss::IndexAdditiveQuantizerFastScan", ptr %11, i32 0, i32 2
  store i8 1, ptr %12, align 8, !tbaa !63
  %13 = getelementptr inbounds nuw %"struct.faiss::IndexAdditiveQuantizerFastScan", ptr %11, i32 0, i32 3
  store i32 1, ptr %13, align 4, !tbaa !64
  %14 = getelementptr inbounds nuw %"struct.faiss::IndexAdditiveQuantizerFastScan", ptr %11, i32 0, i32 4
  store i64 0, ptr %14, align 8, !tbaa !23
  %15 = load ptr, ptr %6, align 8, !tbaa !76
  %16 = load i32, ptr %7, align 4, !tbaa !77
  %17 = load i32, ptr %8, align 4, !tbaa !21
  invoke void @_ZN5faiss30IndexAdditiveQuantizerFastScan4initEPNS_17AdditiveQuantizerENS_10MetricTypeEi(ptr noundef nonnull align 8 dereferenceable(160) %11, ptr noundef %15, i32 noundef %16, i32 noundef %17)
          to label %18 unwind label %19

18:                                               ; preds = %4
  ret void

19:                                               ; preds = %4
  %20 = landingpad { ptr, i32 }
          cleanup
  %21 = extractvalue { ptr, i32 } %20, 0
  store ptr %21, ptr %9, align 8
  %22 = extractvalue { ptr, i32 } %20, 1
  store i32 %22, ptr %10, align 4
  call void @_ZN5faiss13IndexFastScanD2Ev(ptr noundef nonnull align 8 dereferenceable(136) %11) #11
  br label %23

23:                                               ; preds = %19
  %24 = load ptr, ptr %9, align 8
  %25 = load i32, ptr %10, align 4
  %26 = insertvalue { ptr, i32 } poison, ptr %24, 0
  %27 = insertvalue { ptr, i32 } %26, i32 %25, 1
  resume { ptr, i32 } %27
}