; Function Attrs: mustprogress uwtable
define void @_ZN5faiss30IndexAdditiveQuantizerFastScanC2EPNS_17AdditiveQuantizerENS_10MetricTypeEi(ptr noundef nonnull align 8 dereferenceable(160) %0, ptr noundef %1, i32 noundef %2, i32 noundef %3) unnamed_addr #1 align 2 personality ptr @__gxx_personality_v0 {
  tail call void @_ZN5faiss13IndexFastScanC2Ev(ptr noundef nonnull align 8 dereferenceable(136) %0)
  store ptr getelementptr inbounds nuw inrange(-16, 200) (i8, ptr @_ZTVN5faiss30IndexAdditiveQuantizerFastScanE, i64 16), ptr %0, align 8, !tbaa !53
  %5 = getelementptr inbounds nuw i8, ptr %0, i64 144
  store i8 1, ptr %5, align 8, !tbaa !62
  %6 = getelementptr inbounds nuw i8, ptr %0, i64 148
  store i32 1, ptr %6, align 4, !tbaa !76
  %7 = getelementptr inbounds nuw i8, ptr %0, i64 152
  store i64 0, ptr %7, align 8, !tbaa !17
  invoke void @_ZN5faiss30IndexAdditiveQuantizerFastScan4initEPNS_17AdditiveQuantizerENS_10MetricTypeEi(ptr noundef nonnull align 8 dereferenceable(160) %0, ptr noundef %1, i32 noundef %2, i32 noundef %3)
          to label %8 unwind label %9

8:                                                ; preds = %4
  ret void

9:                                                ; preds = %4
  %10 = landingpad { ptr, i32 }
          cleanup
  tail call void @_ZN5faiss13IndexFastScanD2Ev(ptr noundef nonnull align 8 dereferenceable(136) %0) #14
  resume { ptr, i32 } %10
}